target datalayout = "e-m:e-p270:32:32-p271:32:32-p272:64:64-i64:64-i128:128-f80:128-n8:16:32:64-S128"
target triple = "x86_64-pc-linux-gnu"

%"struct.clang::PrintingPolicy" = type { i64, ptr }
%"class.(anonymous namespace)::StmtPrinter" = type { ptr, i32, ptr, %"struct.clang::PrintingPolicy", %"class.std::__cxx11::basic_string", ptr }
%"class.std::__cxx11::basic_string" = type { %"struct.std::__cxx11::basic_string<char>::_Alloc_hider", i64, %union.anon.133 }
%"struct.std::__cxx11::basic_string<char>::_Alloc_hider" = type { ptr }
%union.anon.133 = type { i64, [8 x i8] }

; Function Attrs: mustprogress nounwind uwtable
define internal void @_ZN12_GLOBAL__N_111StmtPrinter9PrintStmtEPN5clang4StmtE(ptr noundef nonnull align 8 dereferenceable(80) %0, ptr noundef %1) #0 align 2 {
  %3 = alloca ptr, align 8
  %4 = alloca ptr, align 8
  store ptr %0, ptr %3, align 8
  store ptr %1, ptr %4, align 8
  %5 = load ptr, ptr %3, align 8
  %6 = load ptr, ptr %4, align 8
  %7 = getelementptr inbounds nuw %"class.(anonymous namespace)::StmtPrinter", ptr %5, i32 0, i32 3
  %8 = load i64, ptr %7, align 8
  %9 = and i64 %8, 255
  %10 = trunc i64 %9 to i32
  call void @_ZN12_GLOBAL__N_111StmtPrinter9PrintStmtEPN5clang4StmtEi(ptr noundef nonnull align 8 dereferenceable(80) %5, ptr noundef %6, i32 noundef %10)
  ret void
}

; Function Attrs: mustprogress nounwind uwtable
define internal void @_ZN12_GLOBAL__N_111StmtPrinter17VisitCapturedStmtEPN5clang12CapturedStmtE(ptr noundef nonnull align 8 dereferenceable(80) %0, ptr noundef %1) #0 align 2 {
  %3 = alloca ptr, align 8
  %4 = alloca ptr, align 8
  store ptr %0, ptr %3, align 8
  store ptr %1, ptr %4, align 8
  %5 = load ptr, ptr %3, align 8
  %6 = load ptr, ptr %4, align 8
  %7 = call noundef ptr @_ZN5clang12CapturedStmt15getCapturedDeclEv(ptr noundef nonnull align 8 dereferenceable(32) %6)
  %8 = call noundef ptr @_ZNK5clang12CapturedDecl7getBodyEv(ptr noundef nonnull align 8 dereferenceable(88) %7)
  call void @_ZN12_GLOBAL__N_111StmtPrinter9PrintStmtEPN5clang4StmtE(ptr noundef nonnull align 8 dereferenceable(80) %5, ptr noundef %8)
  ret void
}