; Function Attrs: mustprogress nounwind uwtable
define internal fastcc void @_ZN12_GLOBAL__N_111StmtPrinter17VisitCapturedStmtEPN5clang12CapturedStmtE(ptr noundef nonnull align 8 dereferenceable(80) %0, ptr noundef nonnull %1) unnamed_addr #0 align 2 {
  %3 = tail call noundef ptr @_ZN5clang12CapturedStmt15getCapturedDeclEv(ptr noundef nonnull align 8 dereferenceable(32) %1) #19
  %4 = tail call noundef ptr @_ZNK5clang12CapturedDecl7getBodyEv(ptr noundef nonnull align 8 dereferenceable(88) %3) #19
  %5 = getelementptr inbounds nuw i8, ptr %0, i64 24
  %6 = load i64, ptr %5, align 8
  %7 = trunc i64 %6 to i32
  %8 = and i32 %7, 255
  tail call fastcc void @_ZN12_GLOBAL__N_111StmtPrinter9PrintStmtEPN5clang4StmtEi(ptr noundef nonnull align 8 dereferenceable(80) %0, ptr noundef %4, i32 noundef %8)
  ret void
}